target datalayout = "e-m:e-p270:32:32-p271:32:32-p272:64:64-i64:64-i128:128-f80:128-n8:16:32:64-S128"
target triple = "x86_64-pc-linux-gnu"

%struct.Clu_Man_t_ = type { i32, i32, i32, i32, i32, i32, i32, i32, i32, i32, i32, i32, i32, i32, i32, ptr, ptr, ptr, ptr, i32, i32, i32, ptr, ptr, ptr, i32, i32, i32, i32, ptr, ptr, ptr, i32, i32 }
%struct.Vec_Int_t_ = type { i32, i32, ptr }

@.str = private unnamed_addr constant [49 x i8] c"Selected %d clauses. Cost range: [%d < %d < %d]\0A\00", align 1

; Function Attrs: inlinehint nounwind uwtable
define internal void @Vec_IntWriteEntry(ptr noundef %0, i32 noundef %1, i32 noundef %2) #2 {
  %4 = alloca ptr, align 8
  %5 = alloca i32, align 4
  %6 = alloca i32, align 4
  store ptr %0, ptr %4, align 8, !tbaa !90
  store i32 %1, ptr %5, align 4, !tbaa !21
  store i32 %2, ptr %6, align 4, !tbaa !21
  %7 = load i32, ptr %6, align 4, !tbaa !21
  %8 = load ptr, ptr %4, align 8, !tbaa !90
  %9 = getelementptr inbounds nuw %struct.Vec_Int_t_, ptr %8, i32 0, i32 2
  %10 = load ptr, ptr %9, align 8, !tbaa !93
  %11 = load i32, ptr %5, align 4, !tbaa !21
  %12 = sext i32 %11 to i64
  %13 = getelementptr inbounds i32, ptr %10, i64 %12
  store i32 %7, ptr %13, align 4, !tbaa !21
  ret void
}

; Function Attrs: inlinehint nounwind uwtable
define internal i32 @Vec_IntEntry(ptr noundef %0, i32 noundef %1) #2 {
  %3 = alloca ptr, align 8
  %4 = alloca i32, align 4
  store ptr %0, ptr %3, align 8, !tbaa !90
  store i32 %1, ptr %4, align 4, !tbaa !21
  %5 = load ptr, ptr %3, align 8, !tbaa !90
  %6 = getelementptr inbounds nuw %struct.Vec_Int_t_, ptr %5, i32 0, i32 2
  %7 = load ptr, ptr %6, align 8, !tbaa !93
  %8 = load i32, ptr %4, align 4, !tbaa !21
  %9 = sext i32 %8 to i64
  %10 = getelementptr inbounds i32, ptr %7, i64 %9
  %11 = load i32, ptr %10, align 4, !tbaa !21
  ret i32 %11
}

; Function Attrs: inlinehint nounwind uwtable
define internal i32 @Vec_IntSize(ptr noundef %0) #2 {
  %2 = alloca ptr, align 8
  store ptr %0, ptr %2, align 8, !tbaa !90
  %3 = load ptr, ptr %2, align 8, !tbaa !90
  %4 = getelementptr inbounds nuw %struct.Vec_Int_t_, ptr %3, i32 0, i32 1
  %5 = load i32, ptr %4, align 4, !tbaa !91
  ret i32 %5
}

; Function Attrs: nounwind uwtable
define i32 @Fra_ClausSelectClauses(ptr noundef %0) #0 {
  %2 = alloca ptr, align 8
  %3 = alloca ptr, align 8
  %4 = alloca i32, align 4
  %5 = alloca i32, align 4
  %6 = alloca i32, align 4
  %7 = alloca i32, align 4
  %8 = alloca i32, align 4
  store ptr %0, ptr %2, align 8, !tbaa !3
  call void @llvm.lifetime.start.p0(i64 8, ptr %3) #11
  call void @llvm.lifetime.start.p0(i64 4, ptr %4) #11
  call void @llvm.lifetime.start.p0(i64 4, ptr %5) #11
  call void @llvm.lifetime.start.p0(i64 4, ptr %6) #11
  call void @llvm.lifetime.start.p0(i64 4, ptr %7) #11
  call void @llvm.lifetime.start.p0(i64 4, ptr %8) #11
  %9 = load ptr, ptr %2, align 8, !tbaa !3
  %10 = getelementptr inbounds nuw %struct.Clu_Man_t_, ptr %9, i32 0, i32 11
  %11 = load i32, ptr %10, align 4, !tbaa !82
  %12 = mul nsw i32 %11, 32
  %13 = add nsw i32 %12, 1
  store i32 %13, ptr %6, align 4, !tbaa !21
  %14 = load i32, ptr %6, align 4, !tbaa !21
  %15 = sext i32 %14 to i64
  %16 = mul i64 4, %15
  %17 = call noalias ptr @malloc(i64 noundef %16) #12
  store ptr %17, ptr %3, align 8, !tbaa !42
  %18 = load ptr, ptr %3, align 8, !tbaa !42
  %19 = load i32, ptr %6, align 4, !tbaa !21
  %20 = sext i32 %19 to i64
  %21 = mul i64 4, %20
  call void @llvm.memset.p0.i64(ptr align 4 %18, i8 0, i64 %21, i1 false)
  store i32 0, ptr %7, align 4, !tbaa !21
  br label %22

22:                                               ; preds = %48, %1
  %23 = load i32, ptr %7, align 4, !tbaa !21
  %24 = load ptr, ptr %2, align 8, !tbaa !3
  %25 = getelementptr inbounds nuw %struct.Clu_Man_t_, ptr %24, i32 0, i32 24
  %26 = load ptr, ptr %25, align 8, !tbaa !83
  %27 = call i32 @Vec_IntSize(ptr noundef %26)
  %28 = icmp slt i32 %23, %27
  br i1 %28, label %29, label %35

29:                                               ; preds = %22
  %30 = load ptr, ptr %2, align 8, !tbaa !3
  %31 = getelementptr inbounds nuw %struct.Clu_Man_t_, ptr %30, i32 0, i32 24
  %32 = load ptr, ptr %31, align 8, !tbaa !83
  %33 = load i32, ptr %7, align 4, !tbaa !21
  %34 = call i32 @Vec_IntEntry(ptr noundef %32, i32 noundef %33)
  store i32 %34, ptr %5, align 4, !tbaa !21
  br label %35

35:                                               ; preds = %29, %22
  %36 = phi i1 [ false, %22 ], [ true, %29 ]
  br i1 %36, label %37, label %51

37:                                               ; preds = %35
  %38 = load i32, ptr %5, align 4, !tbaa !21
  %39 = icmp eq i32 %38, -1
  br i1 %39, label %40, label %41

40:                                               ; preds = %37
  br label %48

41:                                               ; preds = %37
  %42 = load ptr, ptr %3, align 8, !tbaa !42
  %43 = load i32, ptr %5, align 4, !tbaa !21
  %44 = sext i32 %43 to i64
  %45 = getelementptr inbounds i32, ptr %42, i64 %44
  %46 = load i32, ptr %45, align 4, !tbaa !21
  %47 = add nsw i32 %46, 1
  store i32 %47, ptr %45, align 4, !tbaa !21
  br label %48

48:                                               ; preds = %41, %40
  %49 = load i32, ptr %7, align 4, !tbaa !21
  %50 = add nsw i32 %49, 1
  store i32 %50, ptr %7, align 4, !tbaa !21
  br label %22, !llvm.loop !84

51:                                               ; preds = %35
  store i32 0, ptr %4, align 4, !tbaa !21
  %52 = load i32, ptr %6, align 4, !tbaa !21
  %53 = sub nsw i32 %52, 1
  store i32 %53, ptr %8, align 4, !tbaa !21
  br label %54

54:                                               ; preds = %72, %51
  %55 = load i32, ptr %8, align 4, !tbaa !21
  %56 = icmp sgt i32 %55, 0
  br i1 %56, label %57, label %75

57:                                               ; preds = %54
  %58 = load ptr, ptr %3, align 8, !tbaa !42
  %59 = load i32, ptr %8, align 4, !tbaa !21
  %60 = sext i32 %59 to i64
  %61 = getelementptr inbounds i32, ptr %58, i64 %60
  %62 = load i32, ptr %61, align 4, !tbaa !21
  %63 = load i32, ptr %4, align 4, !tbaa !21
  %64 = add nsw i32 %63, %62
  store i32 %64, ptr %4, align 4, !tbaa !21
  %65 = load i32, ptr %4, align 4, !tbaa !21
  %66 = load ptr, ptr %2, align 8, !tbaa !3
  %67 = getelementptr inbounds nuw %struct.Clu_Man_t_, ptr %66, i32 0, i32 2
  %68 = load i32, ptr %67, align 8, !tbaa !85
  %69 = icmp sge i32 %65, %68
  br i1 %69, label %70, label %71

70:                                               ; preds = %57
  br label %75

71:                                               ; preds = %57
  br label %72

72:                                               ; preds = %71
  %73 = load i32, ptr %8, align 4, !tbaa !21
  %74 = add nsw i32 %73, -1
  store i32 %74, ptr %8, align 4, !tbaa !21
  br label %54, !llvm.loop !86

75:                                               ; preds = %70, %54
  store i32 0, ptr %4, align 4, !tbaa !21
  store i32 0, ptr %7, align 4, !tbaa !21
  br label %76

76:                                               ; preds = %109, %75
  %77 = load i32, ptr %7, align 4, !tbaa !21
  %78 = load ptr, ptr %2, align 8, !tbaa !3
  %79 = getelementptr inbounds nuw %struct.Clu_Man_t_, ptr %78, i32 0, i32 24
  %80 = load ptr, ptr %79, align 8, !tbaa !83
  %81 = call i32 @Vec_IntSize(ptr noundef %80)
  %82 = icmp slt i32 %77, %81
  br i1 %82, label %83, label %89

83:                                               ; preds = %76
  %84 = load ptr, ptr %2, align 8, !tbaa !3
  %85 = getelementptr inbounds nuw %struct.Clu_Man_t_, ptr %84, i32 0, i32 24
  %86 = load ptr, ptr %85, align 8, !tbaa !83
  %87 = load i32, ptr %7, align 4, !tbaa !21
  %88 = call i32 @Vec_IntEntry(ptr noundef %86, i32 noundef %87)
  store i32 %88, ptr %5, align 4, !tbaa !21
  br label %89

89:                                               ; preds = %83, %76
  %90 = phi i1 [ false, %76 ], [ true, %83 ]
  br i1 %90, label %91, label %112

91:                                               ; preds = %89
  %92 = load i32, ptr %5, align 4, !tbaa !21
  %93 = load i32, ptr %8, align 4, !tbaa !21
  %94 = icmp sge i32 %92, %93
  br i1 %94, label %95, label %104

95:                                               ; preds = %91
  %96 = load i32, ptr %4, align 4, !tbaa !21
  %97 = load ptr, ptr %2, align 8, !tbaa !3
  %98 = getelementptr inbounds nuw %struct.Clu_Man_t_, ptr %97, i32 0, i32 2
  %99 = load i32, ptr %98, align 8, !tbaa !85
  %100 = icmp slt i32 %96, %99
  br i1 %100, label %101, label %104

101:                                              ; preds = %95
  %102 = load i32, ptr %4, align 4, !tbaa !21
  %103 = add nsw i32 %102, 1
  store i32 %103, ptr %4, align 4, !tbaa !21
  br label %109

104:                                              ; preds = %95, %91
  %105 = load ptr, ptr %2, align 8, !tbaa !3
  %106 = getelementptr inbounds nuw %struct.Clu_Man_t_, ptr %105, i32 0, i32 24
  %107 = load ptr, ptr %106, align 8, !tbaa !83
  %108 = load i32, ptr %7, align 4, !tbaa !21
  call void @Vec_IntWriteEntry(ptr noundef %107, i32 noundef %108, i32 noundef -1)
  br label %109

109:                                              ; preds = %104, %101
  %110 = load i32, ptr %7, align 4, !tbaa !21
  %111 = add nsw i32 %110, 1
  store i32 %111, ptr %7, align 4, !tbaa !21
  br label %76, !llvm.loop !87

112:                                              ; preds = %89
  %113 = load ptr, ptr %3, align 8, !tbaa !42
  %114 = icmp ne ptr %113, null
  br i1 %114, label %115, label %117

115:                                              ; preds = %112
  %116 = load ptr, ptr %3, align 8, !tbaa !42
  call void @free(ptr noundef %116) #11
  store ptr null, ptr %3, align 8, !tbaa !42
  br label %118

117:                                              ; preds = %112
  br label %118

118:                                              ; preds = %117, %115
  %119 = load i32, ptr %4, align 4, !tbaa !21
  %120 = load ptr, ptr %2, align 8, !tbaa !3
  %121 = getelementptr inbounds nuw %struct.Clu_Man_t_, ptr %120, i32 0, i32 25
  store i32 %119, ptr %121, align 8, !tbaa !88
  %122 = load ptr, ptr %2, align 8, !tbaa !3
  %123 = getelementptr inbounds nuw %struct.Clu_Man_t_, ptr %122, i32 0, i32 9
  %124 = load i32, ptr %123, align 4, !tbaa !89
  %125 = icmp ne i32 %124, 0
  br i1 %125, label %126, label %131

126:                                              ; preds = %118
  %127 = load i32, ptr %4, align 4, !tbaa !21
  %128 = load i32, ptr %8, align 4, !tbaa !21
  %129 = load i32, ptr %6, align 4, !tbaa !21
  %130 = call i32 (ptr, ...) @printf(ptr noundef @.str, i32 noundef %127, i32 noundef 1, i32 noundef %128, i32 noundef %129)
  br label %131

131:                                              ; preds = %126, %118
  %132 = load i32, ptr %8, align 4, !tbaa !21
  call void @llvm.lifetime.end.p0(i64 4, ptr %8) #11
  call void @llvm.lifetime.end.p0(i64 4, ptr %7) #11
  call void @llvm.lifetime.end.p0(i64 4, ptr %6) #11
  call void @llvm.lifetime.end.p0(i64 4, ptr %5) #11
  call void @llvm.lifetime.end.p0(i64 4, ptr %4) #11
  call void @llvm.lifetime.end.p0(i64 8, ptr %3) #11
  ret i32 %132
}