; Function Attrs: nounwind uwtable
define range(i32 2147483647, 2147483617) i32 @Fra_ClausSelectClauses(ptr noundef captures(none) %0) local_unnamed_addr #0 {
  %2 = getelementptr inbounds nuw i8, ptr %0, i64 44
  %3 = load i32, ptr %2, align 4, !tbaa !75
  %4 = shl nsw i32 %3, 5
  %5 = or disjoint i32 %4, 1
  %6 = sext i32 %5 to i64
  %7 = shl nsw i64 %6, 2
  %calloc = tail call ptr @calloc(i64 1, i64 %7)
  %8 = getelementptr inbounds nuw i8, ptr %0, i64 128
  %9 = load ptr, ptr %8, align 8, !tbaa !76
  %10 = getelementptr i8, ptr %9, i64 4
  %.val = load i32, ptr %10, align 4, !tbaa !77
  %11 = icmp sgt i32 %.val, 0
  br i1 %11, label %.lr.ph, label %.critedge.preheader

.lr.ph:                                           ; preds = %1
  %12 = getelementptr i8, ptr %9, i64 8
  %.val51 = load ptr, ptr %12, align 8, !tbaa !79
  %wide.trip.count = zext nneg i32 %.val to i64
  br label %17

.critedge.preheader:                              ; preds = %26, %1
  %13 = icmp sgt i32 %3, 0
  br i1 %13, label %.lr.ph60, label %._crit_edge

.lr.ph60:                                         ; preds = %.critedge.preheader
  %14 = getelementptr inbounds nuw i8, ptr %0, i64 8
  %15 = load i32, ptr %14, align 8, !tbaa !80
  %smin = tail call i32 @llvm.smin.i32(i32 %4, i32 1)
  %16 = add nsw i32 %smin, -1
  br label %27

17:                                               ; preds = %.lr.ph, %26
  %indvars.iv = phi i64 [ 0, %.lr.ph ], [ %indvars.iv.next, %26 ]
  %18 = getelementptr inbounds nuw i32, ptr %.val51, i64 %indvars.iv
  %19 = load i32, ptr %18, align 4, !tbaa !38
  %20 = icmp eq i32 %19, -1
  br i1 %20, label %26, label %21

21:                                               ; preds = %17
  %22 = sext i32 %19 to i64
  %23 = getelementptr inbounds i32, ptr %calloc, i64 %22
  %24 = load i32, ptr %23, align 4, !tbaa !38
  %25 = add nsw i32 %24, 1
  store i32 %25, ptr %23, align 4, !tbaa !38
  br label %26

26:                                               ; preds = %17, %21
  %indvars.iv.next = add nuw nsw i64 %indvars.iv, 1
  %exitcond.not = icmp eq i64 %indvars.iv.next, %wide.trip.count
  br i1 %exitcond.not, label %.critedge.preheader, label %17, !llvm.loop !81

27:                                               ; preds = %.lr.ph60, %.critedge
  %.059 = phi i32 [ %4, %.lr.ph60 ], [ %32, %.critedge ]
  %.04358 = phi i32 [ 0, %.lr.ph60 ], [ %31, %.critedge ]
  %28 = zext nneg i32 %.059 to i64
  %29 = getelementptr inbounds nuw i32, ptr %calloc, i64 %28
  %30 = load i32, ptr %29, align 4, !tbaa !38
  %31 = add nsw i32 %30, %.04358
  %.not = icmp slt i32 %31, %15
  br i1 %.not, label %.critedge, label %._crit_edge

.critedge:                                        ; preds = %27
  %32 = add nsw i32 %.059, -1
  %33 = icmp sgt i32 %.059, 1
  br i1 %33, label %27, label %._crit_edge, !llvm.loop !82

._crit_edge:                                      ; preds = %.critedge, %27, %.critedge.preheader
  %.0.lcssa = phi i32 [ %4, %.critedge.preheader ], [ %.059, %27 ], [ %16, %.critedge ]
  br i1 %11, label %.lr.ph67, label %.critedge2

.lr.ph67:                                         ; preds = %._crit_edge
  %34 = getelementptr i8, ptr %9, i64 8
  %.val52 = load ptr, ptr %34, align 8, !tbaa !79
  %35 = getelementptr inbounds nuw i8, ptr %0, i64 8
  br label %36

36:                                               ; preds = %.lr.ph67, %45
  %.val5073 = phi i32 [ %.val, %.lr.ph67 ], [ %.val50, %45 ]
  %indvars.iv70 = phi i64 [ 0, %.lr.ph67 ], [ %indvars.iv.next71, %45 ]
  %.14464 = phi i32 [ 0, %.lr.ph67 ], [ %.2, %45 ]
  %37 = getelementptr inbounds nuw i32, ptr %.val52, i64 %indvars.iv70
  %38 = load i32, ptr %37, align 4, !tbaa !38
  %.not49 = icmp slt i32 %38, %.0.lcssa
  br i1 %.not49, label %44, label %39

39:                                               ; preds = %36
  %40 = load i32, ptr %35, align 8, !tbaa !80
  %41 = icmp slt i32 %.14464, %40
  br i1 %41, label %42, label %44

42:                                               ; preds = %39
  %43 = add nsw i32 %.14464, 1
  br label %45

44:                                               ; preds = %39, %36
  store i32 -1, ptr %37, align 4, !tbaa !38
  %.val50.pre = load i32, ptr %10, align 4, !tbaa !77
  br label %45

45:                                               ; preds = %44, %42
  %.val50 = phi i32 [ %.val5073, %42 ], [ %.val50.pre, %44 ]
  %.2 = phi i32 [ %43, %42 ], [ %.14464, %44 ]
  %indvars.iv.next71 = add nuw nsw i64 %indvars.iv70, 1
  %46 = sext i32 %.val50 to i64
  %47 = icmp slt i64 %indvars.iv.next71, %46
  br i1 %47, label %36, label %.critedge2, !llvm.loop !83

.critedge2:                                       ; preds = %45, %._crit_edge
  %.144.lcssa = phi i32 [ 0, %._crit_edge ], [ %.2, %45 ]
  tail call void @free(ptr noundef %calloc) #23
  %48 = getelementptr inbounds nuw i8, ptr %0, i64 136
  store i32 %.144.lcssa, ptr %48, align 8, !tbaa !84
  %49 = getelementptr inbounds nuw i8, ptr %0, i64 36
  %50 = load i32, ptr %49, align 4, !tbaa !85
  %.not48 = icmp eq i32 %50, 0
  br i1 %.not48, label %53, label %51

51:                                               ; preds = %.critedge2
  %52 = tail call i32 (ptr, ...) @printf(ptr noundef nonnull dereferenceable(1) @.str, i32 noundef %.144.lcssa, i32 noundef 1, i32 noundef %.0.lcssa, i32 noundef %5)
  br label %53

53:                                               ; preds = %51, %.critedge2
  ret i32 %.0.lcssa
}